; Function Attrs: mustprogress nounwind uwtable
define hidden void @_ZN4cvc58internal14WallClockTimer3setEm(ptr noundef nonnull writeonly align 8 captures(none) dereferenceable(16) initializes((0, 16)) %0, i64 noundef %1) local_unnamed_addr #5 align 2 personality ptr @__gxx_personality_v0 {
  %3 = icmp eq i64 %1, 0
  br i1 %3, label %8, label %4

4:                                                ; preds = %2
  %5 = tail call i64 @_ZNSt6chrono3_V212system_clock3nowEv() #28
  %6 = mul nsw i64 %1, 1000000
  %7 = add nsw i64 %5, %6
  br label %8

8:                                                ; preds = %2, %4
  %.sink4 = phi i64 [ %5, %4 ], [ 0, %2 ]
  %.sink = phi i64 [ %7, %4 ], [ 0, %2 ]
  store i64 %.sink4, ptr %0, align 8, !tbaa !3
  %9 = getelementptr inbounds nuw i8, ptr %0, i64 8
  store i64 %.sink, ptr %9, align 8, !tbaa !3
  ret void
}